target datalayout = "e-m:e-p270:32:32-p271:32:32-p272:64:64-i64:64-i128:128-f80:128-n8:16:32:64-S128"
target triple = "x86_64-unknown-linux-gnu"

%"class.std::basic_string_view" = type { i64, ptr }
%"class.absl::lts_20230802::Status" = type { i64 }
%"union.absl::lts_20230802::functional_internal::VoidPtr" = type { ptr }
%class.anon = type { ptr }

; Function Attrs: mustprogress nounwind uwtable
define linkonce_odr noundef zeroext i1 @_ZN4absl12lts_202308026Status9IsInlinedEm(i64 noundef %rep) #4 comdat align 2 {
entry:
  %rep.addr = alloca i64, align 8
  store i64 %rep, ptr %rep.addr, align 8
  %0 = load i64, ptr %rep.addr, align 8
  %and = and i64 %0, 1
  %cmp = icmp eq i64 %and, 0
  ret i1 %cmp
}

; Function Attrs: mustprogress nounwind uwtable
define linkonce_odr noundef i64 @_ZN4absl12lts_202308026Status16CodeToInlinedRepENS0_10StatusCodeE(i32 noundef %code) #4 comdat align 2 {
entry:
  %code.addr = alloca i32, align 4
  store i32 %code, ptr %code.addr, align 4
  %0 = load i32, ptr %code.addr, align 4
  %conv = sext i32 %0 to i64
  %shl = shl i64 %conv, 2
  ret i64 %shl
}

; Function Attrs: mustprogress uwtable
define linkonce_odr void @_ZN4absl12lts_202308026Status5UnrefEm(i64 noundef %rep) #7 comdat align 2 {
entry:
  %rep.addr = alloca i64, align 8
  store i64 %rep, ptr %rep.addr, align 8
  %0 = load i64, ptr %rep.addr, align 8
  %call = call noundef zeroext i1 @_ZN4absl12lts_202308026Status9IsInlinedEm(i64 noundef %0)
  br i1 %call, label %if.end, label %if.then

if.then:                                          ; preds = %entry
  %1 = load i64, ptr %rep.addr, align 8
  call void @_ZN4absl12lts_202308026Status15UnrefNonInlinedEm(i64 noundef %1)
  br label %if.end

if.end:                                           ; preds = %if.then, %entry
  ret void
}

; Function Attrs: mustprogress nounwind uwtable
define linkonce_odr noundef i64 @_ZN4absl12lts_202308026Status12MovedFromRepEv() #4 comdat align 2 {
entry:
  %call = call noundef i64 @_ZN4absl12lts_202308026Status16CodeToInlinedRepENS0_10StatusCodeE(i32 noundef 13)
  %or = or i64 %call, 2
  ret i64 %or
}

; Function Attrs: mustprogress uwtable
define linkonce_odr noundef nonnull align 8 dereferenceable(8) ptr @_ZN4absl12lts_202308026StatusaSEOS1_(ptr noundef nonnull align 8 dereferenceable(8) %this, ptr noundef nonnull align 8 dereferenceable(8) %x) #7 comdat align 2 {
entry:
  %this.addr = alloca ptr, align 8
  %x.addr = alloca ptr, align 8
  %old_rep = alloca i64, align 8
  store ptr %this, ptr %this.addr, align 8
  store ptr %x, ptr %x.addr, align 8
  %this1 = load ptr, ptr %this.addr, align 8
  %rep_ = getelementptr inbounds %"class.absl::lts_20230802::Status", ptr %this1, i32 0, i32 0
  %0 = load i64, ptr %rep_, align 8
  store i64 %0, ptr %old_rep, align 8
  %1 = load ptr, ptr %x.addr, align 8
  %rep_2 = getelementptr inbounds %"class.absl::lts_20230802::Status", ptr %1, i32 0, i32 0
  %2 = load i64, ptr %rep_2, align 8
  %3 = load i64, ptr %old_rep, align 8
  %cmp = icmp ne i64 %2, %3
  br i1 %cmp, label %if.then, label %if.end

if.then:                                          ; preds = %entry
  %4 = load ptr, ptr %x.addr, align 8
  %rep_3 = getelementptr inbounds %"class.absl::lts_20230802::Status", ptr %4, i32 0, i32 0
  %5 = load i64, ptr %rep_3, align 8
  %rep_4 = getelementptr inbounds %"class.absl::lts_20230802::Status", ptr %this1, i32 0, i32 0
  store i64 %5, ptr %rep_4, align 8
  %call = call noundef i64 @_ZN4absl12lts_202308026Status12MovedFromRepEv()
  %6 = load ptr, ptr %x.addr, align 8
  %rep_5 = getelementptr inbounds %"class.absl::lts_20230802::Status", ptr %6, i32 0, i32 0
  store i64 %call, ptr %rep_5, align 8
  %7 = load i64, ptr %old_rep, align 8
  call void @_ZN4absl12lts_202308026Status5UnrefEm(i64 noundef %7)
  br label %if.end

if.end:                                           ; preds = %if.then, %entry
  ret ptr %this1
}

; Function Attrs: mustprogress uwtable
define internal void @"_ZZN23grpc_plugin_credentials14PendingRequest19ProcessPluginResultEPK13grpc_metadatam16grpc_status_codePKcENK3$_0clESt17basic_string_viewIcSt11char_traitsIcEERKN9grpc_core5SliceE"(ptr noundef nonnull align 8 dereferenceable(8) %this, i64 %message.coerce0, ptr %message.coerce1, ptr noundef nonnull align 8 dereferenceable(32) %0) #7 align 2 personality ptr @__gxx_personality_v0 {
entry:
  %message = alloca %"class.std::basic_string_view", align 8
  %this.addr = alloca ptr, align 8
  %.addr = alloca ptr, align 8
  %ref.tmp = alloca %"class.absl::lts_20230802::Status", align 8
  %agg.tmp = alloca %"class.std::basic_string_view", align 8
  %exn.slot = alloca ptr, align 8
  %ehselector.slot = alloca i32, align 4
  %1 = getelementptr inbounds { i64, ptr }, ptr %message, i32 0, i32 0
  store i64 %message.coerce0, ptr %1, align 8
  %2 = getelementptr inbounds { i64, ptr }, ptr %message, i32 0, i32 1
  store ptr %message.coerce1, ptr %2, align 8
  store ptr %this, ptr %this.addr, align 8
  store ptr %0, ptr %.addr, align 8
  %this1 = load ptr, ptr %this.addr, align 8
  call void @llvm.memcpy.p0.p0.i64(ptr align 8 %agg.tmp, ptr align 8 %message, i64 16, i1 false)
  %3 = getelementptr inbounds { i64, ptr }, ptr %agg.tmp, i32 0, i32 0
  %4 = load i64, ptr %3, align 8
  %5 = getelementptr inbounds { i64, ptr }, ptr %agg.tmp, i32 0, i32 1
  %6 = load ptr, ptr %5, align 8
  call void @_ZN4absl12lts_2023080216UnavailableErrorESt17basic_string_viewIcSt11char_traitsIcEE(ptr sret(%"class.absl::lts_20230802::Status") align 8 %ref.tmp, i64 %4, ptr %6)
  %7 = getelementptr inbounds %class.anon, ptr %this1, i32 0, i32 0
  %8 = load ptr, ptr %7, align 8
  %call = invoke noundef nonnull align 8 dereferenceable(8) ptr @_ZN4absl12lts_202308026StatusaSEOS1_(ptr noundef nonnull align 8 dereferenceable(8) %8, ptr noundef nonnull align 8 dereferenceable(8) %ref.tmp)
          to label %invoke.cont unwind label %lpad

invoke.cont:                                      ; preds = %entry
  call void @_ZN4absl12lts_202308026StatusD2Ev(ptr noundef nonnull align 8 dereferenceable(8) %ref.tmp) #3
  ret void

lpad:                                             ; preds = %entry
  %9 = landingpad { ptr, i32 }
          cleanup
  %10 = extractvalue { ptr, i32 } %9, 0
  store ptr %10, ptr %exn.slot, align 8
  %11 = extractvalue { ptr, i32 } %9, 1
  store i32 %11, ptr %ehselector.slot, align 4
  call void @_ZN4absl12lts_202308026StatusD2Ev(ptr noundef nonnull align 8 dereferenceable(8) %ref.tmp) #3
  br label %eh.resume

eh.resume:                                        ; preds = %lpad
  %exn = load ptr, ptr %exn.slot, align 8
  %sel = load i32, ptr %ehselector.slot, align 4
  %lpad.val = insertvalue { ptr, i32 } poison, ptr %exn, 0
  %lpad.val2 = insertvalue { ptr, i32 } %lpad.val, i32 %sel, 1
  resume { ptr, i32 } %lpad.val2
}

; Function Attrs: mustprogress uwtable
define internal void @"_ZSt13__invoke_implIvRKZN23grpc_plugin_credentials14PendingRequest19ProcessPluginResultEPK13grpc_metadatam16grpc_status_codePKcE3$_0JSt17basic_string_viewIcSt11char_traitsIcEERKN9grpc_core5SliceEEET_St14__invoke_otherOT0_DpOT1_"(ptr noundef nonnull align 8 dereferenceable(8) %__f, ptr noundef nonnull align 8 dereferenceable(16) %__args, ptr noundef nonnull align 8 dereferenceable(32) %__args1) #7 {
entry:
  %__f.addr = alloca ptr, align 8
  %__args.addr = alloca ptr, align 8
  %__args.addr2 = alloca ptr, align 8
  %agg.tmp = alloca %"class.std::basic_string_view", align 8
  store ptr %__f, ptr %__f.addr, align 8
  store ptr %__args, ptr %__args.addr, align 8
  store ptr %__args1, ptr %__args.addr2, align 8
  %0 = load ptr, ptr %__f.addr, align 8
  %1 = load ptr, ptr %__args.addr, align 8
  call void @llvm.memcpy.p0.p0.i64(ptr align 8 %agg.tmp, ptr align 8 %1, i64 16, i1 false)
  %2 = load ptr, ptr %__args.addr2, align 8
  %3 = getelementptr inbounds { i64, ptr }, ptr %agg.tmp, i32 0, i32 0
  %4 = load i64, ptr %3, align 8
  %5 = getelementptr inbounds { i64, ptr }, ptr %agg.tmp, i32 0, i32 1
  %6 = load ptr, ptr %5, align 8
  call void @"_ZZN23grpc_plugin_credentials14PendingRequest19ProcessPluginResultEPK13grpc_metadatam16grpc_status_codePKcENK3$_0clESt17basic_string_viewIcSt11char_traitsIcEERKN9grpc_core5SliceE"(ptr noundef nonnull align 8 dereferenceable(8) %0, i64 %4, ptr %6, ptr noundef nonnull align 8 dereferenceable(32) %2)
  ret void
}

; Function Attrs: mustprogress uwtable
define internal void @"_ZSt8__invokeIRKZN23grpc_plugin_credentials14PendingRequest19ProcessPluginResultEPK13grpc_metadatam16grpc_status_codePKcE3$_0JSt17basic_string_viewIcSt11char_traitsIcEERKN9grpc_core5SliceEEENSt15__invoke_resultIT_JDpT0_EE4typeEOSK_DpOSL_"(ptr noundef nonnull align 8 dereferenceable(8) %__fn, ptr noundef nonnull align 8 dereferenceable(16) %__args, ptr noundef nonnull align 8 dereferenceable(32) %__args1) #7 {
entry:
  %__fn.addr = alloca ptr, align 8
  %__args.addr = alloca ptr, align 8
  %__args.addr2 = alloca ptr, align 8
  store ptr %__fn, ptr %__fn.addr, align 8
  store ptr %__args, ptr %__args.addr, align 8
  store ptr %__args1, ptr %__args.addr2, align 8
  %0 = load ptr, ptr %__fn.addr, align 8
  %1 = load ptr, ptr %__args.addr, align 8
  %2 = load ptr, ptr %__args.addr2, align 8
  call void @"_ZSt13__invoke_implIvRKZN23grpc_plugin_credentials14PendingRequest19ProcessPluginResultEPK13grpc_metadatam16grpc_status_codePKcE3$_0JSt17basic_string_viewIcSt11char_traitsIcEERKN9grpc_core5SliceEEET_St14__invoke_otherOT0_DpOT1_"(ptr noundef nonnull align 8 dereferenceable(8) %0, ptr noundef nonnull align 8 dereferenceable(16) %1, ptr noundef nonnull align 8 dereferenceable(32) %2)
  ret void
}

; Function Attrs: mustprogress uwtable
define internal void @"_ZSt6invokeIRKZN23grpc_plugin_credentials14PendingRequest19ProcessPluginResultEPK13grpc_metadatam16grpc_status_codePKcE3$_0JSt17basic_string_viewIcSt11char_traitsIcEERKN9grpc_core5SliceEEENSt13invoke_resultIT_JDpT0_EE4typeEOSK_DpOSL_"(ptr noundef nonnull align 8 dereferenceable(8) %__fn, ptr noundef nonnull align 8 dereferenceable(16) %__args, ptr noundef nonnull align 8 dereferenceable(32) %__args1) #7 {
entry:
  %__fn.addr = alloca ptr, align 8
  %__args.addr = alloca ptr, align 8
  %__args.addr2 = alloca ptr, align 8
  store ptr %__fn, ptr %__fn.addr, align 8
  store ptr %__args, ptr %__args.addr, align 8
  store ptr %__args1, ptr %__args.addr2, align 8
  %0 = load ptr, ptr %__fn.addr, align 8
  %1 = load ptr, ptr %__args.addr, align 8
  %2 = load ptr, ptr %__args.addr2, align 8
  call void @"_ZSt8__invokeIRKZN23grpc_plugin_credentials14PendingRequest19ProcessPluginResultEPK13grpc_metadatam16grpc_status_codePKcE3$_0JSt17basic_string_viewIcSt11char_traitsIcEERKN9grpc_core5SliceEEENSt15__invoke_resultIT_JDpT0_EE4typeEOSK_DpOSL_"(ptr noundef nonnull align 8 dereferenceable(8) %0, ptr noundef nonnull align 8 dereferenceable(16) %1, ptr noundef nonnull align 8 dereferenceable(32) %2)
  ret void
}

; Function Attrs: mustprogress uwtable
define internal void @"_ZN4absl12lts_2023080219functional_internal12InvokeObjectIZN23grpc_plugin_credentials14PendingRequest19ProcessPluginResultEPK13grpc_metadatam16grpc_status_codePKcE3$_0vJSt17basic_string_viewIcSt11char_traitsIcEERKN9grpc_core5SliceEEEET0_NS1_7VoidPtrEDpNS1_8ForwardTIT1_E4typeE"(ptr %ptr.coerce, i64 %args.coerce0, ptr %args.coerce1, ptr noundef nonnull align 8 dereferenceable(32) %args1) #7 {
entry:
  %ptr = alloca %"union.absl::lts_20230802::functional_internal::VoidPtr", align 8
  %args = alloca %"class.std::basic_string_view", align 8
  %args.addr = alloca ptr, align 8
  %o = alloca ptr, align 8
  %coerce.dive = getelementptr inbounds %"union.absl::lts_20230802::functional_internal::VoidPtr", ptr %ptr, i32 0, i32 0
  store ptr %ptr.coerce, ptr %coerce.dive, align 8
  %0 = getelementptr inbounds { i64, ptr }, ptr %args, i32 0, i32 0
  store i64 %args.coerce0, ptr %0, align 8
  %1 = getelementptr inbounds { i64, ptr }, ptr %args, i32 0, i32 1
  store ptr %args.coerce1, ptr %1, align 8
  store ptr %args1, ptr %args.addr, align 8
  %2 = load ptr, ptr %ptr, align 8
  store ptr %2, ptr %o, align 8
  %3 = load ptr, ptr %o, align 8
  %4 = load ptr, ptr %args.addr, align 8
  call void @"_ZSt6invokeIRKZN23grpc_plugin_credentials14PendingRequest19ProcessPluginResultEPK13grpc_metadatam16grpc_status_codePKcE3$_0JSt17basic_string_viewIcSt11char_traitsIcEERKN9grpc_core5SliceEEENSt13invoke_resultIT_JDpT0_EE4typeEOSK_DpOSL_"(ptr noundef nonnull align 8 dereferenceable(8) %3, ptr noundef nonnull align 8 dereferenceable(16) %args, ptr noundef nonnull align 8 dereferenceable(32) %4)
  ret void
}