; Function Attrs: mustprogress uwtable
define internal void @"_ZN4absl12lts_2023080219functional_internal12InvokeObjectIZN23grpc_plugin_credentials14PendingRequest19ProcessPluginResultEPK13grpc_metadatam16grpc_status_codePKcE3$_0vJSt17basic_string_viewIcSt11char_traitsIcEERKN9grpc_core5SliceEEEET0_NS1_7VoidPtrEDpNS1_8ForwardTIT1_E4typeE"(ptr nocapture readonly %ptr.coerce, i64 %args.coerce0, ptr %args.coerce1, ptr nocapture nonnull readnone align 8 %args1) #6 personality ptr @__gxx_personality_v0 {
entry:
  %ref.tmp.i.i.i.i = alloca %"class.absl::lts_20230802::Status", align 8
  call void @llvm.lifetime.start.p0(i64 8, ptr nonnull %ref.tmp.i.i.i.i)
  call void @_ZN4absl12lts_2023080216UnavailableErrorESt17basic_string_viewIcSt11char_traitsIcEE(ptr nonnull sret(%"class.absl::lts_20230802::Status") align 8 %ref.tmp.i.i.i.i, i64 %args.coerce0, ptr %args.coerce1)
  %0 = load ptr, ptr %ptr.coerce, align 8
  %1 = load i64, ptr %0, align 8
  %2 = load i64, ptr %ref.tmp.i.i.i.i, align 8
  %cmp.not.i.i.i.i.i = icmp eq i64 %2, %1
  br i1 %cmp.not.i.i.i.i.i, label %invoke.cont.i.i.i.i, label %if.then.i.i.i.i.i

if.then.i.i.i.i.i:                                ; preds = %entry
  store i64 %2, ptr %0, align 8
  store i64 54, ptr %ref.tmp.i.i.i.i, align 8
  %and.i.i.i.i.i.i.i = and i64 %1, 1
  %cmp.i.i.i.i.i.i.i = icmp eq i64 %and.i.i.i.i.i.i.i, 0
  br i1 %cmp.i.i.i.i.i.i.i, label %"_ZSt6invokeIRKZN23grpc_plugin_credentials14PendingRequest19ProcessPluginResultEPK13grpc_metadatam16grpc_status_codePKcE3$_0JSt17basic_string_viewIcSt11char_traitsIcEERKN9grpc_core5SliceEEENSt13invoke_resultIT_JDpT0_EE4typeEOSK_DpOSL_.exit", label %if.then.i.i.i.i.i.i

if.then.i.i.i.i.i.i:                              ; preds = %if.then.i.i.i.i.i
  invoke void @_ZN4absl12lts_202308026Status15UnrefNonInlinedEm(i64 noundef %1)
          to label %if.then.i.i.invoke.cont_crit_edge.i.i.i.i unwind label %lpad.i.i.i.i

if.then.i.i.invoke.cont_crit_edge.i.i.i.i:        ; preds = %if.then.i.i.i.i.i.i
  %.pre.i.i.i.i = load i64, ptr %ref.tmp.i.i.i.i, align 8
  br label %invoke.cont.i.i.i.i

invoke.cont.i.i.i.i:                              ; preds = %if.then.i.i.invoke.cont_crit_edge.i.i.i.i, %entry
  %3 = phi i64 [ %.pre.i.i.i.i, %if.then.i.i.invoke.cont_crit_edge.i.i.i.i ], [ %1, %entry ]
  %and.i.i.i1.i.i.i.i = and i64 %3, 1
  %cmp.i.i.i2.i.i.i.i = icmp eq i64 %and.i.i.i1.i.i.i.i, 0
  br i1 %cmp.i.i.i2.i.i.i.i, label %"_ZSt6invokeIRKZN23grpc_plugin_credentials14PendingRequest19ProcessPluginResultEPK13grpc_metadatam16grpc_status_codePKcE3$_0JSt17basic_string_viewIcSt11char_traitsIcEERKN9grpc_core5SliceEEENSt13invoke_resultIT_JDpT0_EE4typeEOSK_DpOSL_.exit", label %if.then.i.i3.i.i.i.i

if.then.i.i3.i.i.i.i:                             ; preds = %invoke.cont.i.i.i.i
  invoke void @_ZN4absl12lts_202308026Status15UnrefNonInlinedEm(i64 noundef %3)
          to label %"_ZSt6invokeIRKZN23grpc_plugin_credentials14PendingRequest19ProcessPluginResultEPK13grpc_metadatam16grpc_status_codePKcE3$_0JSt17basic_string_viewIcSt11char_traitsIcEERKN9grpc_core5SliceEEENSt13invoke_resultIT_JDpT0_EE4typeEOSK_DpOSL_.exit" unwind label %terminate.lpad.i.i.i.i.i

terminate.lpad.i.i.i.i.i:                         ; preds = %if.then.i.i3.i.i.i.i
  %4 = landingpad { ptr, i32 }
          catch ptr null
  %5 = extractvalue { ptr, i32 } %4, 0
  call void @__clang_call_terminate(ptr %5) #22
  unreachable

lpad.i.i.i.i:                                     ; preds = %if.then.i.i.i.i.i.i
  %6 = landingpad { ptr, i32 }
          cleanup
  call void @_ZN4absl12lts_202308026StatusD2Ev(ptr noundef nonnull align 8 dereferenceable(8) %ref.tmp.i.i.i.i) #23
  resume { ptr, i32 } %6

"_ZSt6invokeIRKZN23grpc_plugin_credentials14PendingRequest19ProcessPluginResultEPK13grpc_metadatam16grpc_status_codePKcE3$_0JSt17basic_string_viewIcSt11char_traitsIcEERKN9grpc_core5SliceEEENSt13invoke_resultIT_JDpT0_EE4typeEOSK_DpOSL_.exit": ; preds = %if.then.i.i.i.i.i, %invoke.cont.i.i.i.i, %if.then.i.i3.i.i.i.i
  call void @llvm.lifetime.end.p0(i64 8, ptr nonnull %ref.tmp.i.i.i.i)
  ret void
}